; Function Attrs: mustprogress nofree norecurse nosync nounwind willreturn memory(argmem: write) uwtable
define hidden void @je_hpdata_hugify(ptr noundef writeonly captures(none) initializes((16, 17), (176, 248)) %0) local_unnamed_addr #0 {
  %2 = getelementptr inbounds nuw i8, ptr %0, i64 16
  store i8 1, ptr %2, align 8, !tbaa !26
  %3 = getelementptr inbounds nuw i8, ptr %0, i64 184
  %4 = getelementptr inbounds nuw i8, ptr %0, i64 176
  tail call void @llvm.memset.p0.i64(ptr noundef nonnull align 8 dereferenceable(64) %3, i8 -1, i64 64, i1 false)
  store i64 512, ptr %4, align 8, !tbaa !36
  ret void
}